; Function Attrs: mustprogress nofree norecurse nosync nounwind memory(readwrite, inaccessiblemem: none) uwtable
define hidden noundef i32 @_ZN5array6solver7mg_findEi(ptr nocapture noundef nonnull readonly align 8 dereferenceable(536) %this, i32 noundef %n) local_unnamed_addr #5 align 2 {
entry:
  %m_parents = getelementptr inbounds i8, ptr %this, i64 488
  %0 = load ptr, ptr %m_parents, align 8
  %idxprom.i = zext i32 %n to i64
  %arrayidx.i = getelementptr inbounds i32, ptr %0, i64 %idxprom.i
  %1 = load i32, ptr %arrayidx.i, align 4
  %cmp = icmp slt i32 %1, 0
  br i1 %cmp, label %return, label %if.end

if.end:                                           ; preds = %entry
  %idxprom.i14 = zext nneg i32 %1 to i64
  %arrayidx.i15 = getelementptr inbounds i32, ptr %0, i64 %idxprom.i14
  %2 = load i32, ptr %arrayidx.i15, align 4
  %cmp6 = icmp slt i32 %2, -1
  br i1 %cmp6, label %return, label %while.cond

while.cond:                                       ; preds = %if.end, %while.cond
  %n.addr.0 = phi i32 [ %3, %while.cond ], [ %1, %if.end ]
  %idxprom.i16 = zext nneg i32 %n.addr.0 to i64
  %arrayidx.i17 = getelementptr inbounds i32, ptr %0, i64 %idxprom.i16
  %3 = load i32, ptr %arrayidx.i17, align 4
  %cmp11 = icmp sgt i32 %3, -1
  br i1 %cmp11, label %while.cond, label %while.body18, !llvm.loop !8

while.body18:                                     ; preds = %while.cond, %while.body18
  %4 = phi i32 [ %6, %while.body18 ], [ %1, %while.cond ]
  %arrayidx.i2129 = phi ptr [ %arrayidx.i21, %while.body18 ], [ %arrayidx.i, %while.cond ]
  store i32 %n.addr.0, ptr %arrayidx.i2129, align 4
  %5 = load ptr, ptr %m_parents, align 8
  %idxprom.i20 = zext nneg i32 %4 to i64
  %arrayidx.i21 = getelementptr inbounds i32, ptr %5, i64 %idxprom.i20
  %6 = load i32, ptr %arrayidx.i21, align 4
  %cmp17 = icmp sgt i32 %6, -1
  br i1 %cmp17, label %while.body18, label %return, !llvm.loop !9

return:                                           ; preds = %while.body18, %if.end, %entry
  %retval.0 = phi i32 [ %n, %entry ], [ %1, %if.end ], [ %n.addr.0, %while.body18 ]
  ret i32 %retval.0
}